target datalayout = "e-m:e-p270:32:32-p271:32:32-p272:64:64-i64:64-i128:128-f80:128-n8:16:32:64-S128"
target triple = "x86_64-pc-linux-gnu"

%struct.b2ShapeId = type { i32, i16, i16 }
%struct.b2Vec2 = type { float, float }
%struct.b2BodyId = type { i32, i16, i16 }
%struct.b2Circle = type { %struct.b2Vec2, float }
%struct.b2Capsule = type { %struct.b2Vec2, %struct.b2Vec2, float }

@b2_lengthUnitsPerMeter = external global float, align 4

; Function Attrs: inlinehint nounwind uwtable
define internal <2 x float> @b2Lerp(<2 x float> %0, <2 x float> %1, float noundef %2) #5 {
  %4 = alloca %struct.b2Vec2, align 4
  %5 = alloca %struct.b2Vec2, align 4
  %6 = alloca %struct.b2Vec2, align 4
  %7 = alloca float, align 4
  store <2 x float> %0, ptr %5, align 4
  store <2 x float> %1, ptr %6, align 4
  store float %2, ptr %7, align 4, !tbaa !50
  %8 = getelementptr inbounds nuw %struct.b2Vec2, ptr %4, i32 0, i32 0
  %9 = load float, ptr %7, align 4, !tbaa !50
  %10 = fsub float 1.000000e+00, %9
  %11 = getelementptr inbounds nuw %struct.b2Vec2, ptr %5, i32 0, i32 0
  %12 = load float, ptr %11, align 4, !tbaa !55
  %13 = fmul float %10, %12
  %14 = load float, ptr %7, align 4, !tbaa !50
  %15 = getelementptr inbounds nuw %struct.b2Vec2, ptr %6, i32 0, i32 0
  %16 = load float, ptr %15, align 4, !tbaa !55
  %17 = fmul float %14, %16
  %18 = fadd float %13, %17
  store float %18, ptr %8, align 4, !tbaa !55
  %19 = getelementptr inbounds nuw %struct.b2Vec2, ptr %4, i32 0, i32 1
  %20 = load float, ptr %7, align 4, !tbaa !50
  %21 = fsub float 1.000000e+00, %20
  %22 = getelementptr inbounds nuw %struct.b2Vec2, ptr %5, i32 0, i32 1
  %23 = load float, ptr %22, align 4, !tbaa !56
  %24 = fmul float %21, %23
  %25 = load float, ptr %7, align 4, !tbaa !50
  %26 = getelementptr inbounds nuw %struct.b2Vec2, ptr %6, i32 0, i32 1
  %27 = load float, ptr %26, align 4, !tbaa !56
  %28 = fmul float %25, %27
  %29 = fadd float %24, %28
  store float %29, ptr %19, align 4, !tbaa !56
  %30 = load <2 x float>, ptr %4, align 4
  ret <2 x float> %30
}

; Function Attrs: inlinehint nounwind uwtable
define internal float @b2DistanceSquared(<2 x float> %0, <2 x float> %1) #5 {
  %3 = alloca %struct.b2Vec2, align 4
  %4 = alloca %struct.b2Vec2, align 4
  %5 = alloca %struct.b2Vec2, align 4
  store <2 x float> %0, ptr %3, align 4
  store <2 x float> %1, ptr %4, align 4
  call void @llvm.lifetime.start.p0(i64 8, ptr %5) #9
  %6 = getelementptr inbounds nuw %struct.b2Vec2, ptr %5, i32 0, i32 0
  %7 = getelementptr inbounds nuw %struct.b2Vec2, ptr %4, i32 0, i32 0
  %8 = load float, ptr %7, align 4, !tbaa !55
  %9 = getelementptr inbounds nuw %struct.b2Vec2, ptr %3, i32 0, i32 0
  %10 = load float, ptr %9, align 4, !tbaa !55
  %11 = fsub float %8, %10
  store float %11, ptr %6, align 4, !tbaa !55
  %12 = getelementptr inbounds nuw %struct.b2Vec2, ptr %5, i32 0, i32 1
  %13 = getelementptr inbounds nuw %struct.b2Vec2, ptr %4, i32 0, i32 1
  %14 = load float, ptr %13, align 4, !tbaa !56
  %15 = getelementptr inbounds nuw %struct.b2Vec2, ptr %3, i32 0, i32 1
  %16 = load float, ptr %15, align 4, !tbaa !56
  %17 = fsub float %14, %16
  store float %17, ptr %12, align 4, !tbaa !56
  %18 = getelementptr inbounds nuw %struct.b2Vec2, ptr %5, i32 0, i32 0
  %19 = load float, ptr %18, align 4, !tbaa !55
  %20 = getelementptr inbounds nuw %struct.b2Vec2, ptr %5, i32 0, i32 0
  %21 = load float, ptr %20, align 4, !tbaa !55
  %22 = fmul float %19, %21
  %23 = getelementptr inbounds nuw %struct.b2Vec2, ptr %5, i32 0, i32 1
  %24 = load float, ptr %23, align 4, !tbaa !56
  %25 = getelementptr inbounds nuw %struct.b2Vec2, ptr %5, i32 0, i32 1
  %26 = load float, ptr %25, align 4, !tbaa !56
  %27 = fmul float %24, %26
  %28 = fadd float %22, %27
  call void @llvm.lifetime.end.p0(i64 8, ptr %5) #9
  ret float %28
}

; Function Attrs: nounwind uwtable
define i64 @b2CreateCapsuleShape(i64 %0, ptr noundef %1, ptr noundef %2) #3 {
  %4 = alloca %struct.b2ShapeId, align 4
  %5 = alloca %struct.b2BodyId, align 4
  %6 = alloca ptr, align 8
  %7 = alloca ptr, align 8
  %8 = alloca float, align 4
  %9 = alloca %struct.b2Circle, align 4
  %10 = alloca i32, align 4
  store i64 %0, ptr %5, align 4
  store ptr %1, ptr %6, align 8, !tbaa !19
  store ptr %2, ptr %7, align 8, !tbaa !48
  call void @llvm.lifetime.start.p0(i64 4, ptr %8) #9
  %11 = load ptr, ptr %7, align 8, !tbaa !48
  %12 = getelementptr inbounds nuw %struct.b2Capsule, ptr %11, i32 0, i32 0
  %13 = load ptr, ptr %7, align 8, !tbaa !48
  %14 = getelementptr inbounds nuw %struct.b2Capsule, ptr %13, i32 0, i32 1
  %15 = load <2 x float>, ptr %12, align 4
  %16 = load <2 x float>, ptr %14, align 4
  %17 = call float @b2DistanceSquared(<2 x float> %15, <2 x float> %16)
  store float %17, ptr %8, align 4, !tbaa !50
  %18 = load float, ptr %8, align 4, !tbaa !50
  %19 = load float, ptr @b2_lengthUnitsPerMeter, align 4, !tbaa !50
  %20 = fmul float 0x3F747AE140000000, %19
  %21 = load float, ptr @b2_lengthUnitsPerMeter, align 4, !tbaa !50
  %22 = fmul float 0x3F747AE140000000, %21
  %23 = fmul float %20, %22
  %24 = fcmp ole float %18, %23
  br i1 %24, label %25, label %40

25:                                               ; preds = %3
  call void @llvm.lifetime.start.p0(i64 12, ptr %9) #9
  %26 = load ptr, ptr %7, align 8, !tbaa !48
  %27 = getelementptr inbounds nuw %struct.b2Capsule, ptr %26, i32 0, i32 0
  %28 = load ptr, ptr %7, align 8, !tbaa !48
  %29 = getelementptr inbounds nuw %struct.b2Capsule, ptr %28, i32 0, i32 1
  %30 = load <2 x float>, ptr %27, align 4
  %31 = load <2 x float>, ptr %29, align 4
  %32 = call <2 x float> @b2Lerp(<2 x float> %30, <2 x float> %31, float noundef 5.000000e-01)
  store <2 x float> %32, ptr %9, align 4
  %33 = getelementptr inbounds nuw %struct.b2Circle, ptr %9, i32 0, i32 1
  %34 = load ptr, ptr %7, align 8, !tbaa !48
  %35 = getelementptr inbounds nuw %struct.b2Capsule, ptr %34, i32 0, i32 2
  %36 = load float, ptr %35, align 4, !tbaa !51
  store float %36, ptr %33, align 4, !tbaa !53
  %37 = load ptr, ptr %6, align 8, !tbaa !19
  %38 = load i64, ptr %5, align 4
  %39 = call i64 @b2CreateShape(i64 %38, ptr noundef %37, ptr noundef %9, i32 noundef 0)
  store i64 %39, ptr %4, align 4
  store i32 1, ptr %10, align 4
  call void @llvm.lifetime.end.p0(i64 12, ptr %9) #9
  br label %45

40:                                               ; preds = %3
  %41 = load ptr, ptr %6, align 8, !tbaa !19
  %42 = load ptr, ptr %7, align 8, !tbaa !48
  %43 = load i64, ptr %5, align 4
  %44 = call i64 @b2CreateShape(i64 %43, ptr noundef %41, ptr noundef %42, i32 noundef 1)
  store i64 %44, ptr %4, align 4
  store i32 1, ptr %10, align 4
  br label %45

45:                                               ; preds = %40, %25
  call void @llvm.lifetime.end.p0(i64 4, ptr %8) #9
  %46 = load i64, ptr %4, align 4
  ret i64 %46
}