; Function Attrs: nounwind uwtable
define i64 @b2CreateCapsuleShape(i64 %0, ptr noundef readonly captures(none) %1, ptr noundef readonly captures(none) %2) local_unnamed_addr #3 {
  %4 = alloca %struct.b2Circle, align 8
  %5 = getelementptr inbounds nuw i8, ptr %2, i64 8
  %6 = load <2 x float>, ptr %2, align 4
  %7 = load <2 x float>, ptr %5, align 4
  %8 = fsub <2 x float> %7, %6
  %.sroa.03.4.vec.extract.i = extractelement <2 x float> %7, i64 1
  %.sroa.04.4.vec.extract.i = extractelement <2 x float> %6, i64 1
  %9 = fsub float %.sroa.03.4.vec.extract.i, %.sroa.04.4.vec.extract.i
  %10 = fmul <2 x float> %8, %8
  %11 = extractelement <2 x float> %10, i64 0
  %12 = fmul float %9, %9
  %13 = fadd float %11, %12
  %14 = load float, ptr @b2_lengthUnitsPerMeter, align 4, !tbaa !29
  %15 = fmul float %14, 0x3F747AE140000000
  %16 = fmul float %15, %15
  %17 = fcmp ugt float %13, %16
  br i1 %17, label %29, label %18

18:                                               ; preds = %3
  %.sroa.04.0.vec.extract.i = extractelement <2 x float> %6, i64 0
  %.sroa.03.0.vec.extract.i = extractelement <2 x float> %7, i64 0
  call void @llvm.lifetime.start.p0(i64 12, ptr nonnull %4) #10
  %19 = fmul float %.sroa.04.0.vec.extract.i, 5.000000e-01
  %20 = fmul float %.sroa.03.0.vec.extract.i, 5.000000e-01
  %21 = fadd float %19, %20
  %.sroa.05.0.vec.insert.i = insertelement <2 x float> poison, float %21, i64 0
  %22 = fmul float %.sroa.04.4.vec.extract.i, 5.000000e-01
  %23 = fmul float %.sroa.03.4.vec.extract.i, 5.000000e-01
  %24 = fadd float %22, %23
  %.sroa.05.4.vec.insert.i = insertelement <2 x float> %.sroa.05.0.vec.insert.i, float %24, i64 1
  store <2 x float> %.sroa.05.4.vec.insert.i, ptr %4, align 8
  %25 = getelementptr inbounds nuw i8, ptr %4, i64 8
  %26 = getelementptr inbounds nuw i8, ptr %2, i64 16
  %27 = load float, ptr %26, align 4, !tbaa !30
  store float %27, ptr %25, align 8, !tbaa !32
  %28 = call fastcc i64 @b2CreateShape(i64 %0, ptr noundef %1, ptr noundef nonnull %4, i32 noundef 0)
  call void @llvm.lifetime.end.p0(i64 12, ptr nonnull %4) #10
  br label %31

29:                                               ; preds = %3
  %30 = tail call fastcc i64 @b2CreateShape(i64 %0, ptr noundef %1, ptr noundef nonnull %2, i32 noundef 1)
  br label %31

31:                                               ; preds = %29, %18
  %.sroa.010.0 = phi i64 [ %28, %18 ], [ %30, %29 ]
  ret i64 %.sroa.010.0
}